target datalayout = "e-m:e-p270:32:32-p271:32:32-p272:64:64-i64:64-i128:128-f80:128-n8:16:32:64-S128"
target triple = "x86_64-pc-linux-gnu"

%struct.b2Vec2 = type { float, float }
%struct.b2Transform = type { %struct.b2Vec2, %struct.b2Rot }
%struct.b2Rot = type { float, float }
%struct.b2Manifold = type { %struct.b2Vec2, float, [2 x %struct.b2ManifoldPoint], i32 }
%struct.b2ManifoldPoint = type { %struct.b2Vec2, %struct.b2Vec2, %struct.b2Vec2, float, float, float, float, float, i16, i8 }
%struct.b2Polygon = type { [8 x %struct.b2Vec2], [8 x %struct.b2Vec2], %struct.b2Vec2, float, i32 }
%struct.b2Segment = type { %struct.b2Vec2, %struct.b2Vec2 }

@b2Vec2_zero = internal constant %struct.b2Vec2 zeroinitializer, align 4

; Function Attrs: inlinehint nounwind uwtable
define internal <2 x float> @b2Neg(<2 x float> %0) #3 {
  %2 = alloca %struct.b2Vec2, align 4
  %3 = alloca %struct.b2Vec2, align 4
  store <2 x float> %0, ptr %3, align 4
  %4 = getelementptr inbounds nuw %struct.b2Vec2, ptr %2, i32 0, i32 0
  %5 = getelementptr inbounds nuw %struct.b2Vec2, ptr %3, i32 0, i32 0
  %6 = load float, ptr %5, align 4, !tbaa !27
  %7 = fneg float %6
  store float %7, ptr %4, align 4, !tbaa !27
  %8 = getelementptr inbounds nuw %struct.b2Vec2, ptr %2, i32 0, i32 1
  %9 = getelementptr inbounds nuw %struct.b2Vec2, ptr %3, i32 0, i32 1
  %10 = load float, ptr %9, align 4, !tbaa !29
  %11 = fneg float %10
  store float %11, ptr %8, align 4, !tbaa !29
  %12 = load <2 x float>, ptr %2, align 4
  ret <2 x float> %12
}

; Function Attrs: inlinehint nounwind uwtable
define internal <2 x float> @b2RightPerp(<2 x float> %0) #3 {
  %2 = alloca %struct.b2Vec2, align 4
  %3 = alloca %struct.b2Vec2, align 4
  store <2 x float> %0, ptr %3, align 4
  %4 = getelementptr inbounds nuw %struct.b2Vec2, ptr %2, i32 0, i32 0
  %5 = getelementptr inbounds nuw %struct.b2Vec2, ptr %3, i32 0, i32 1
  %6 = load float, ptr %5, align 4, !tbaa !29
  store float %6, ptr %4, align 4, !tbaa !27
  %7 = getelementptr inbounds nuw %struct.b2Vec2, ptr %2, i32 0, i32 1
  %8 = getelementptr inbounds nuw %struct.b2Vec2, ptr %3, i32 0, i32 0
  %9 = load float, ptr %8, align 4, !tbaa !27
  %10 = fneg float %9
  store float %10, ptr %7, align 4, !tbaa !29
  %11 = load <2 x float>, ptr %2, align 4
  ret <2 x float> %11
}

; Function Attrs: inlinehint nounwind uwtable
define internal <2 x float> @b2Normalize(<2 x float> %0) #3 {
  %2 = alloca %struct.b2Vec2, align 4
  %3 = alloca %struct.b2Vec2, align 4
  %4 = alloca float, align 4
  %5 = alloca i32, align 4
  %6 = alloca float, align 4
  store <2 x float> %0, ptr %3, align 4
  call void @llvm.lifetime.start.p0(i64 4, ptr %4) #8
  %7 = getelementptr inbounds nuw %struct.b2Vec2, ptr %3, i32 0, i32 0
  %8 = load float, ptr %7, align 4, !tbaa !27
  %9 = getelementptr inbounds nuw %struct.b2Vec2, ptr %3, i32 0, i32 0
  %10 = load float, ptr %9, align 4, !tbaa !27
  %11 = fmul float %8, %10
  %12 = getelementptr inbounds nuw %struct.b2Vec2, ptr %3, i32 0, i32 1
  %13 = load float, ptr %12, align 4, !tbaa !29
  %14 = getelementptr inbounds nuw %struct.b2Vec2, ptr %3, i32 0, i32 1
  %15 = load float, ptr %14, align 4, !tbaa !29
  %16 = fmul float %13, %15
  %17 = fadd float %11, %16
  %18 = call float @sqrtf(float noundef %17) #8, !tbaa !44
  store float %18, ptr %4, align 4, !tbaa !9
  %19 = load float, ptr %4, align 4, !tbaa !9
  %20 = fcmp olt float %19, 0x3E80000000000000
  br i1 %20, label %21, label %22

21:                                               ; preds = %1
  call void @llvm.memcpy.p0.p0.i64(ptr align 4 %2, ptr align 4 @b2Vec2_zero, i64 8, i1 false), !tbaa.struct !8
  store i32 1, ptr %5, align 4
  br label %35

22:                                               ; preds = %1
  call void @llvm.lifetime.start.p0(i64 4, ptr %6) #8
  %23 = load float, ptr %4, align 4, !tbaa !9
  %24 = fdiv float 1.000000e+00, %23
  store float %24, ptr %6, align 4, !tbaa !9
  %25 = getelementptr inbounds nuw %struct.b2Vec2, ptr %2, i32 0, i32 0
  %26 = load float, ptr %6, align 4, !tbaa !9
  %27 = getelementptr inbounds nuw %struct.b2Vec2, ptr %3, i32 0, i32 0
  %28 = load float, ptr %27, align 4, !tbaa !27
  %29 = fmul float %26, %28
  store float %29, ptr %25, align 4, !tbaa !27
  %30 = getelementptr inbounds nuw %struct.b2Vec2, ptr %2, i32 0, i32 1
  %31 = load float, ptr %6, align 4, !tbaa !9
  %32 = getelementptr inbounds nuw %struct.b2Vec2, ptr %3, i32 0, i32 1
  %33 = load float, ptr %32, align 4, !tbaa !29
  %34 = fmul float %31, %33
  store float %34, ptr %30, align 4, !tbaa !29
  store i32 1, ptr %5, align 4
  call void @llvm.lifetime.end.p0(i64 4, ptr %6) #8
  br label %35

35:                                               ; preds = %22, %21
  call void @llvm.lifetime.end.p0(i64 4, ptr %4) #8
  %36 = load <2 x float>, ptr %2, align 4
  ret <2 x float> %36
}

; Function Attrs: inlinehint nounwind uwtable
define internal <2 x float> @b2Sub(<2 x float> %0, <2 x float> %1) #3 {
  %3 = alloca %struct.b2Vec2, align 4
  %4 = alloca %struct.b2Vec2, align 4
  %5 = alloca %struct.b2Vec2, align 4
  store <2 x float> %0, ptr %4, align 4
  store <2 x float> %1, ptr %5, align 4
  %6 = getelementptr inbounds nuw %struct.b2Vec2, ptr %3, i32 0, i32 0
  %7 = getelementptr inbounds nuw %struct.b2Vec2, ptr %4, i32 0, i32 0
  %8 = load float, ptr %7, align 4, !tbaa !27
  %9 = getelementptr inbounds nuw %struct.b2Vec2, ptr %5, i32 0, i32 0
  %10 = load float, ptr %9, align 4, !tbaa !27
  %11 = fsub float %8, %10
  store float %11, ptr %6, align 4, !tbaa !27
  %12 = getelementptr inbounds nuw %struct.b2Vec2, ptr %3, i32 0, i32 1
  %13 = getelementptr inbounds nuw %struct.b2Vec2, ptr %4, i32 0, i32 1
  %14 = load float, ptr %13, align 4, !tbaa !29
  %15 = getelementptr inbounds nuw %struct.b2Vec2, ptr %5, i32 0, i32 1
  %16 = load float, ptr %15, align 4, !tbaa !29
  %17 = fsub float %14, %16
  store float %17, ptr %12, align 4, !tbaa !29
  %18 = load <2 x float>, ptr %3, align 4
  ret <2 x float> %18
}

; Function Attrs: inlinehint nounwind uwtable
define internal <2 x float> @b2Lerp(<2 x float> %0, <2 x float> %1, float noundef %2) #3 {
  %4 = alloca %struct.b2Vec2, align 4
  %5 = alloca %struct.b2Vec2, align 4
  %6 = alloca %struct.b2Vec2, align 4
  %7 = alloca float, align 4
  store <2 x float> %0, ptr %5, align 4
  store <2 x float> %1, ptr %6, align 4
  store float %2, ptr %7, align 4, !tbaa !9
  %8 = getelementptr inbounds nuw %struct.b2Vec2, ptr %4, i32 0, i32 0
  %9 = load float, ptr %7, align 4, !tbaa !9
  %10 = fsub float 1.000000e+00, %9
  %11 = getelementptr inbounds nuw %struct.b2Vec2, ptr %5, i32 0, i32 0
  %12 = load float, ptr %11, align 4, !tbaa !27
  %13 = fmul float %10, %12
  %14 = load float, ptr %7, align 4, !tbaa !9
  %15 = getelementptr inbounds nuw %struct.b2Vec2, ptr %6, i32 0, i32 0
  %16 = load float, ptr %15, align 4, !tbaa !27
  %17 = fmul float %14, %16
  %18 = fadd float %13, %17
  store float %18, ptr %8, align 4, !tbaa !27
  %19 = getelementptr inbounds nuw %struct.b2Vec2, ptr %4, i32 0, i32 1
  %20 = load float, ptr %7, align 4, !tbaa !9
  %21 = fsub float 1.000000e+00, %20
  %22 = getelementptr inbounds nuw %struct.b2Vec2, ptr %5, i32 0, i32 1
  %23 = load float, ptr %22, align 4, !tbaa !29
  %24 = fmul float %21, %23
  %25 = load float, ptr %7, align 4, !tbaa !9
  %26 = getelementptr inbounds nuw %struct.b2Vec2, ptr %6, i32 0, i32 1
  %27 = load float, ptr %26, align 4, !tbaa !29
  %28 = fmul float %25, %27
  %29 = fadd float %24, %28
  store float %29, ptr %19, align 4, !tbaa !29
  %30 = load <2 x float>, ptr %4, align 4
  ret <2 x float> %30
}

; Function Attrs: nounwind uwtable
define internal void @b2MakeCapsule(ptr dead_on_unwind noalias writable sret(%struct.b2Polygon) align 4 %0, <2 x float> %1, <2 x float> %2, float noundef %3) #0 {
  %5 = alloca %struct.b2Vec2, align 4
  %6 = alloca %struct.b2Vec2, align 4
  %7 = alloca float, align 4
  %8 = alloca %struct.b2Vec2, align 4
  %9 = alloca %struct.b2Vec2, align 4
  %10 = alloca %struct.b2Vec2, align 4
  %11 = alloca %struct.b2Vec2, align 4
  %12 = alloca %struct.b2Vec2, align 4
  store <2 x float> %1, ptr %5, align 4
  store <2 x float> %2, ptr %6, align 4
  store float %3, ptr %7, align 4, !tbaa !9
  call void @llvm.memset.p0.i64(ptr align 4 %0, i8 0, i64 144, i1 false)
  %13 = getelementptr inbounds nuw %struct.b2Polygon, ptr %0, i32 0, i32 0
  %14 = getelementptr inbounds [8 x %struct.b2Vec2], ptr %13, i64 0, i64 0
  call void @llvm.memcpy.p0.p0.i64(ptr align 4 %14, ptr align 4 %5, i64 8, i1 false), !tbaa.struct !8
  %15 = getelementptr inbounds nuw %struct.b2Polygon, ptr %0, i32 0, i32 0
  %16 = getelementptr inbounds [8 x %struct.b2Vec2], ptr %15, i64 0, i64 1
  call void @llvm.memcpy.p0.p0.i64(ptr align 4 %16, ptr align 4 %6, i64 8, i1 false), !tbaa.struct !8
  %17 = getelementptr inbounds nuw %struct.b2Polygon, ptr %0, i32 0, i32 2
  call void @llvm.lifetime.start.p0(i64 8, ptr %8) #8
  %18 = load <2 x float>, ptr %5, align 4
  %19 = load <2 x float>, ptr %6, align 4
  %20 = call <2 x float> @b2Lerp(<2 x float> %18, <2 x float> %19, float noundef 5.000000e-01)
  store <2 x float> %20, ptr %8, align 4
  call void @llvm.memcpy.p0.p0.i64(ptr align 4 %17, ptr align 4 %8, i64 8, i1 false), !tbaa.struct !8
  call void @llvm.lifetime.end.p0(i64 8, ptr %8) #8
  call void @llvm.lifetime.start.p0(i64 8, ptr %9) #8
  %21 = load <2 x float>, ptr %6, align 4
  %22 = load <2 x float>, ptr %5, align 4
  %23 = call <2 x float> @b2Sub(<2 x float> %21, <2 x float> %22)
  store <2 x float> %23, ptr %9, align 4
  call void @llvm.lifetime.start.p0(i64 8, ptr %10) #8
  %24 = load <2 x float>, ptr %9, align 4
  %25 = call <2 x float> @b2Normalize(<2 x float> %24)
  store <2 x float> %25, ptr %10, align 4
  call void @llvm.lifetime.start.p0(i64 8, ptr %11) #8
  %26 = load <2 x float>, ptr %10, align 4
  %27 = call <2 x float> @b2RightPerp(<2 x float> %26)
  store <2 x float> %27, ptr %11, align 4
  %28 = getelementptr inbounds nuw %struct.b2Polygon, ptr %0, i32 0, i32 1
  %29 = getelementptr inbounds [8 x %struct.b2Vec2], ptr %28, i64 0, i64 0
  call void @llvm.memcpy.p0.p0.i64(ptr align 4 %29, ptr align 4 %11, i64 8, i1 false), !tbaa.struct !8
  %30 = getelementptr inbounds nuw %struct.b2Polygon, ptr %0, i32 0, i32 1
  %31 = getelementptr inbounds [8 x %struct.b2Vec2], ptr %30, i64 0, i64 1
  call void @llvm.lifetime.start.p0(i64 8, ptr %12) #8
  %32 = load <2 x float>, ptr %11, align 4
  %33 = call <2 x float> @b2Neg(<2 x float> %32)
  store <2 x float> %33, ptr %12, align 4
  call void @llvm.memcpy.p0.p0.i64(ptr align 4 %31, ptr align 4 %12, i64 8, i1 false), !tbaa.struct !8
  call void @llvm.lifetime.end.p0(i64 8, ptr %12) #8
  %34 = getelementptr inbounds nuw %struct.b2Polygon, ptr %0, i32 0, i32 4
  store i32 2, ptr %34, align 4, !tbaa !45
  %35 = load float, ptr %7, align 4, !tbaa !9
  %36 = getelementptr inbounds nuw %struct.b2Polygon, ptr %0, i32 0, i32 3
  store float %35, ptr %36, align 4, !tbaa !42
  call void @llvm.lifetime.end.p0(i64 8, ptr %11) #8
  call void @llvm.lifetime.end.p0(i64 8, ptr %10) #8
  call void @llvm.lifetime.end.p0(i64 8, ptr %9) #8
  ret void
}

; Function Attrs: nounwind uwtable
define void @b2CollideSegmentAndPolygon(ptr dead_on_unwind noalias writable sret(%struct.b2Manifold) align 4 %0, ptr noundef %1, <2 x float> %2, <2 x float> %3, ptr noundef %4, <2 x float> %5, <2 x float> %6) #0 {
  %8 = alloca %struct.b2Transform, align 4
  %9 = alloca %struct.b2Transform, align 4
  %10 = alloca ptr, align 8
  %11 = alloca ptr, align 8
  %12 = alloca %struct.b2Polygon, align 4
  %13 = getelementptr inbounds nuw { <2 x float>, <2 x float> }, ptr %8, i32 0, i32 0
  store <2 x float> %2, ptr %13, align 4
  %14 = getelementptr inbounds nuw { <2 x float>, <2 x float> }, ptr %8, i32 0, i32 1
  store <2 x float> %3, ptr %14, align 4
  %15 = getelementptr inbounds nuw { <2 x float>, <2 x float> }, ptr %9, i32 0, i32 0
  store <2 x float> %5, ptr %15, align 4
  %16 = getelementptr inbounds nuw { <2 x float>, <2 x float> }, ptr %9, i32 0, i32 1
  store <2 x float> %6, ptr %16, align 4
  store ptr %1, ptr %10, align 8, !tbaa !54
  store ptr %4, ptr %11, align 8, !tbaa !40
  call void @llvm.lifetime.start.p0(i64 144, ptr %12) #8
  %17 = load ptr, ptr %10, align 8, !tbaa !54
  %18 = getelementptr inbounds nuw %struct.b2Segment, ptr %17, i32 0, i32 0
  %19 = load ptr, ptr %10, align 8, !tbaa !54
  %20 = getelementptr inbounds nuw %struct.b2Segment, ptr %19, i32 0, i32 1
  %21 = load <2 x float>, ptr %18, align 4
  %22 = load <2 x float>, ptr %20, align 4
  call void @b2MakeCapsule(ptr dead_on_unwind writable sret(%struct.b2Polygon) align 4 %12, <2 x float> %21, <2 x float> %22, float noundef 0.000000e+00)
  %23 = load ptr, ptr %11, align 8, !tbaa !40
  %24 = getelementptr inbounds nuw { <2 x float>, <2 x float> }, ptr %8, i32 0, i32 0
  %25 = load <2 x float>, ptr %24, align 4
  %26 = getelementptr inbounds nuw { <2 x float>, <2 x float> }, ptr %8, i32 0, i32 1
  %27 = load <2 x float>, ptr %26, align 4
  %28 = getelementptr inbounds nuw { <2 x float>, <2 x float> }, ptr %9, i32 0, i32 0
  %29 = load <2 x float>, ptr %28, align 4
  %30 = getelementptr inbounds nuw { <2 x float>, <2 x float> }, ptr %9, i32 0, i32 1
  %31 = load <2 x float>, ptr %30, align 4
  call void @b2CollidePolygons(ptr dead_on_unwind writable sret(%struct.b2Manifold) align 4 %0, ptr noundef %12, <2 x float> %25, <2 x float> %27, ptr noundef %23, <2 x float> %29, <2 x float> %31)
  call void @llvm.lifetime.end.p0(i64 144, ptr %12) #8
  ret void
}