; Function Attrs: nounwind uwtable
define void @b2CollideSegmentAndPolygon(ptr dead_on_unwind noalias writable sret(%struct.b2Manifold) align 4 captures(none) %0, ptr noundef readonly captures(none) %1, <2 x float> %2, <2 x float> %3, ptr noundef readonly captures(none) %4, <2 x float> %5, <2 x float> %6) local_unnamed_addr #6 {
  %8 = alloca %struct.b2Polygon, align 8
  call void @llvm.lifetime.start.p0(i64 144, ptr nonnull %8) #10
  %9 = getelementptr inbounds nuw i8, ptr %1, i64 8
  %10 = load <2 x float>, ptr %1, align 4
  %11 = load <2 x float>, ptr %9, align 4
  %12 = getelementptr inbounds nuw i8, ptr %8, i64 16
  call void @llvm.memset.p0.i64(ptr noundef nonnull align 8 dereferenceable(144) %12, i8 0, i64 112, i1 false), !alias.scope !40
  store <2 x float> %10, ptr %8, align 8, !alias.scope !40
  %13 = getelementptr inbounds nuw i8, ptr %8, i64 8
  store <2 x float> %11, ptr %13, align 8, !alias.scope !40
  %14 = getelementptr inbounds nuw i8, ptr %8, i64 128
  %.sroa.04.0.vec.extract.i.i = extractelement <2 x float> %10, i64 0
  %15 = fmul float %.sroa.04.0.vec.extract.i.i, 5.000000e-01
  %.sroa.0.0.vec.extract.i.i = extractelement <2 x float> %11, i64 0
  %16 = fmul float %.sroa.0.0.vec.extract.i.i, 5.000000e-01
  %17 = fadd float %15, %16
  %.sroa.05.0.vec.insert.i.i = insertelement <2 x float> poison, float %17, i64 0
  %.sroa.04.4.vec.extract.i.i = extractelement <2 x float> %10, i64 1
  %18 = fmul float %.sroa.04.4.vec.extract.i.i, 5.000000e-01
  %.sroa.0.4.vec.extract.i.i = extractelement <2 x float> %11, i64 1
  %19 = fmul float %.sroa.0.4.vec.extract.i.i, 5.000000e-01
  %20 = fadd float %18, %19
  %.sroa.05.4.vec.insert.i.i = insertelement <2 x float> %.sroa.05.0.vec.insert.i.i, float %20, i64 1
  store <2 x float> %.sroa.05.4.vec.insert.i.i, ptr %14, align 8, !alias.scope !40
  %21 = fsub <2 x float> %11, %10
  %22 = fsub float %.sroa.0.4.vec.extract.i.i, %.sroa.04.4.vec.extract.i.i
  %23 = fmul <2 x float> %21, %21
  %24 = extractelement <2 x float> %23, i64 0
  %25 = fmul float %22, %22
  %26 = fadd float %24, %25
  %sqrt.i.i = tail call float @llvm.sqrt.f32(float %26)
  %27 = fcmp olt float %sqrt.i.i, 0x3E80000000000000
  br i1 %27, label %b2MakeCapsule.exit, label %28

28:                                               ; preds = %7
  %29 = extractelement <2 x float> %21, i64 0
  %30 = fdiv float 1.000000e+00, %sqrt.i.i
  %31 = fmul float %29, %30
  %.sroa.012.0.vec.insert.i.i = insertelement <2 x float> poison, float %31, i64 0
  %32 = fmul float %22, %30
  %.sroa.012.4.vec.insert.i.i = insertelement <2 x float> %.sroa.012.0.vec.insert.i.i, float %32, i64 1
  br label %b2MakeCapsule.exit

b2MakeCapsule.exit:                               ; preds = %7, %28
  %.sroa.012.0.i.i = phi <2 x float> [ %.sroa.012.4.vec.insert.i.i, %28 ], [ zeroinitializer, %7 ]
  %.sroa.0.4.vec.extract.i13.i = extractelement <2 x float> %.sroa.012.0.i.i, i64 1
  %.sroa.01.0.vec.insert.i.i = insertelement <2 x float> poison, float %.sroa.0.4.vec.extract.i13.i, i64 0
  %.sroa.0.0.vec.extract.i14.i = extractelement <2 x float> %.sroa.012.0.i.i, i64 0
  %33 = fneg float %.sroa.0.0.vec.extract.i14.i
  %.sroa.01.4.vec.insert.i.i = insertelement <2 x float> %.sroa.01.0.vec.insert.i.i, float %33, i64 1
  %34 = getelementptr inbounds nuw i8, ptr %8, i64 64
  store <2 x float> %.sroa.01.4.vec.insert.i.i, ptr %34, align 8, !alias.scope !40
  %35 = getelementptr inbounds nuw i8, ptr %8, i64 72
  %36 = fneg float %.sroa.0.4.vec.extract.i13.i
  %.sroa.01.0.vec.insert.i16.i = insertelement <2 x float> poison, float %36, i64 0
  %.sroa.01.4.vec.insert.i18.i = shufflevector <2 x float> %.sroa.01.0.vec.insert.i16.i, <2 x float> %.sroa.012.0.i.i, <2 x i32> <i32 0, i32 2>
  store <2 x float> %.sroa.01.4.vec.insert.i18.i, ptr %35, align 8, !alias.scope !40
  %37 = getelementptr inbounds nuw i8, ptr %8, i64 140
  store i32 2, ptr %37, align 4, !tbaa !21, !alias.scope !40
  %38 = getelementptr inbounds nuw i8, ptr %8, i64 136
  store float 0.000000e+00, ptr %38, align 8, !tbaa !19, !alias.scope !40
  call void @b2CollidePolygons(ptr dead_on_unwind writable sret(%struct.b2Manifold) align 4 %0, ptr noundef nonnull %8, <2 x float> %2, <2 x float> %3, ptr noundef %4, <2 x float> %5, <2 x float> %6)
  call void @llvm.lifetime.end.p0(i64 144, ptr nonnull %8) #10
  ret void
}